target datalayout = "e-m:e-p270:32:32-p271:32:32-p272:64:64-i64:64-i128:128-f80:128-n8:16:32:64-S128"
target triple = "x86_64-pc-linux-gnu"

%struct.option = type { i32, i32, ptr, ptr, ptr, ptr, i32, ptr, i64, ptr, i64, ptr }

@.str.72 = private unnamed_addr constant [1 x i8] zeroinitializer, align 1
@.str.85 = private unnamed_addr constant [13 x i8] c"builtin/am.c\00", align 1
@.str.87 = private unnamed_addr constant [41 x i8] c"option callback does not expect negation\00", align 1
@.str.95 = private unnamed_addr constant [29 x i8] c"invalid value for '%s': '%s'\00", align 1
@.str.97 = private unnamed_addr constant [4 x i8] c"raw\00", align 1
@.str.98 = private unnamed_addr constant [5 x i8] c"diff\00", align 1
@.str.99 = private unnamed_addr constant [21 x i8] c"--show-current-patch\00", align 1
@git_gettext_enabled = external global i32, align 4

; Function Attrs: inlinehint nounwind uwtable
define internal i32 @const_error() #5 {
  ret i32 -1
}

; Function Attrs: inlinehint nounwind uwtable
define internal ptr @_(ptr noundef %0) #5 {
  %2 = alloca ptr, align 8
  %3 = alloca ptr, align 8
  store ptr %0, ptr %3, align 8, !tbaa !11
  %4 = load ptr, ptr %3, align 8, !tbaa !11
  %5 = load i8, ptr %4, align 1, !tbaa !84
  %6 = icmp ne i8 %5, 0
  br i1 %6, label %8, label %7

7:                                                ; preds = %1
  store ptr @.str.72, ptr %2, align 8
  br label %16

8:                                                ; preds = %1
  %9 = load i32, ptr @git_gettext_enabled, align 4, !tbaa !4
  %10 = icmp ne i32 %9, 0
  br i1 %10, label %13, label %11

11:                                               ; preds = %8
  %12 = load ptr, ptr %3, align 8, !tbaa !11
  store ptr %12, ptr %2, align 8
  br label %16

13:                                               ; preds = %8
  %14 = load ptr, ptr %3, align 8, !tbaa !11
  %15 = call ptr @dcgettext(ptr noundef null, ptr noundef %14, i32 noundef 5) #14
  store ptr %15, ptr %2, align 8
  br label %16

16:                                               ; preds = %13, %11, %7
  %17 = load ptr, ptr %2, align 8
  ret ptr %17
}

; Function Attrs: nounwind uwtable
define internal i32 @parse_opt_show_current_patch(ptr noundef %0, ptr noundef %1, i32 noundef %2) #0 {
  %4 = alloca i32, align 4
  %5 = alloca ptr, align 8
  %6 = alloca ptr, align 8
  %7 = alloca i32, align 4
  %8 = alloca ptr, align 8
  %9 = alloca i32, align 4
  store ptr %0, ptr %5, align 8, !tbaa !42
  store ptr %1, ptr %6, align 8, !tbaa !11
  store i32 %2, ptr %7, align 4, !tbaa !4
  call void @llvm.lifetime.start.p0(i64 8, ptr %8) #14
  %10 = load ptr, ptr %5, align 8, !tbaa !42
  %11 = getelementptr inbounds nuw %struct.option, ptr %10, i32 0, i32 3
  %12 = load ptr, ptr %11, align 8, !tbaa !20
  store ptr %12, ptr %8, align 8, !tbaa !44
  br label %13

13:                                               ; preds = %3
  %14 = load i32, ptr %7, align 4, !tbaa !4
  %15 = icmp ne i32 %14, 0
  br i1 %15, label %16, label %17

16:                                               ; preds = %13
  call void (ptr, i32, ptr, ...) @BUG_fl(ptr noundef @.str.85, i32 noundef 2289, ptr noundef @.str.87) #15
  unreachable

17:                                               ; preds = %13
  br label %18

18:                                               ; preds = %17
  br label %19

19:                                               ; preds = %18
  %20 = load ptr, ptr %6, align 8, !tbaa !11
  %21 = icmp ne ptr %20, null
  br i1 %21, label %28, label %22

22:                                               ; preds = %19
  %23 = load ptr, ptr %5, align 8, !tbaa !42
  %24 = getelementptr inbounds nuw %struct.option, ptr %23, i32 0, i32 8
  %25 = load i64, ptr %24, align 8, !tbaa !25
  %26 = trunc i64 %25 to i32
  %27 = load ptr, ptr %8, align 8, !tbaa !44
  store i32 %26, ptr %27, align 4, !tbaa !4
  br label %47

28:                                               ; preds = %19
  %29 = load ptr, ptr %6, align 8, !tbaa !11
  %30 = call i32 @strcmp(ptr noundef %29, ptr noundef @.str.97) #16
  %31 = icmp ne i32 %30, 0
  br i1 %31, label %34, label %32

32:                                               ; preds = %28
  %33 = load ptr, ptr %8, align 8, !tbaa !44
  store i32 6, ptr %33, align 4, !tbaa !4
  br label %46

34:                                               ; preds = %28
  %35 = load ptr, ptr %6, align 8, !tbaa !11
  %36 = call i32 @strcmp(ptr noundef %35, ptr noundef @.str.98) #16
  %37 = icmp ne i32 %36, 0
  br i1 %37, label %40, label %38

38:                                               ; preds = %34
  %39 = load ptr, ptr %8, align 8, !tbaa !44
  store i32 7, ptr %39, align 4, !tbaa !4
  br label %45

40:                                               ; preds = %34
  %41 = call ptr @_(ptr noundef @.str.95)
  %42 = load ptr, ptr %6, align 8, !tbaa !11
  %43 = call i32 (ptr, ...) @error(ptr noundef %41, ptr noundef @.str.99, ptr noundef %42)
  %44 = call i32 @const_error()
  store i32 %44, ptr %4, align 4
  store i32 1, ptr %9, align 4
  br label %48

45:                                               ; preds = %38
  br label %46

46:                                               ; preds = %45, %32
  br label %47

47:                                               ; preds = %46, %22
  store i32 0, ptr %4, align 4
  store i32 1, ptr %9, align 4
  br label %48

48:                                               ; preds = %47, %40
  call void @llvm.lifetime.end.p0(i64 8, ptr %8) #14
  %49 = load i32, ptr %4, align 4
  ret i32 %49
}