; Function Attrs: nounwind uwtable
define internal range(i32 -1, 1) i32 @parse_opt_show_current_patch(ptr noundef readonly captures(none) %0, ptr noundef %1, i32 noundef %2) #0 {
  %4 = getelementptr inbounds nuw i8, ptr %0, i64 16
  %5 = load ptr, ptr %4, align 8, !tbaa !15
  %.not = icmp eq i32 %2, 0
  br i1 %.not, label %7, label %6

6:                                                ; preds = %3
  tail call void (ptr, i32, ptr, ...) @BUG_fl(ptr noundef nonnull @.str.85, i32 noundef 2289, ptr noundef nonnull @.str.87) #22
  unreachable

7:                                                ; preds = %3
  %.not11 = icmp eq ptr %1, null
  br i1 %.not11, label %8, label %12

8:                                                ; preds = %7
  %9 = getelementptr inbounds nuw i8, ptr %0, i64 56
  %10 = load i64, ptr %9, align 8, !tbaa !20
  %11 = trunc i64 %10 to i32
  store i32 %11, ptr %5, align 4, !tbaa !4
  br label %23

12:                                               ; preds = %7
  %13 = tail call i32 @strcmp(ptr noundef nonnull dereferenceable(1) %1, ptr noundef nonnull dereferenceable(4) @.str.97) #23
  %.not12 = icmp eq i32 %13, 0
  br i1 %.not12, label %14, label %15

14:                                               ; preds = %12
  store i32 6, ptr %5, align 4, !tbaa !4
  br label %23

15:                                               ; preds = %12
  %16 = tail call i32 @strcmp(ptr noundef nonnull dereferenceable(1) %1, ptr noundef nonnull dereferenceable(5) @.str.98) #23
  %.not13 = icmp eq i32 %16, 0
  br i1 %.not13, label %17, label %18

17:                                               ; preds = %15
  store i32 7, ptr %5, align 4, !tbaa !4
  br label %23

18:                                               ; preds = %15
  %19 = load i32, ptr @git_gettext_enabled, align 4, !tbaa !4
  %.not4.i = icmp eq i32 %19, 0
  br i1 %.not4.i, label %_.exit, label %20

20:                                               ; preds = %18
  %21 = tail call ptr @dcgettext(ptr noundef null, ptr noundef nonnull @.str.95, i32 noundef 5) #21
  br label %_.exit

_.exit:                                           ; preds = %18, %20
  %.0.i = phi ptr [ %21, %20 ], [ @.str.95, %18 ]
  %22 = tail call i32 (ptr, ...) @error(ptr noundef %.0.i, ptr noundef nonnull @.str.99, ptr noundef nonnull %1) #21
  br label %23

23:                                               ; preds = %8, %17, %14, %_.exit
  %.0 = phi i32 [ -1, %_.exit ], [ 0, %14 ], [ 0, %17 ], [ 0, %8 ]
  ret i32 %.0
}